target datalayout = "e-m:e-p270:32:32-p271:32:32-p272:64:64-i64:64-i128:128-f80:128-n8:16:32:64-S128"
target triple = "x86_64-pc-linux-gnu"

%struct.RBasic = type { i64, i64 }
%struct.RHash = type { %struct.RBasic, i64 }

; Function Attrs: inlinehint nounwind sspstrong willreturn memory(none) uwtable
define internal zeroext i1 @RB_IMMEDIATE_P(i64 noundef %0) #8 {
  %2 = alloca i64, align 8
  store i64 %0, ptr %2, align 8, !tbaa !7
  %3 = load i64, ptr %2, align 8, !tbaa !7
  %4 = and i64 %3, 7
  %5 = icmp ne i64 %4, 0
  ret i1 %5
}

; Function Attrs: nounwind sspstrong uwtable
define internal zeroext i1 @rb_hash_ruby2_keywords_p(i64 noundef %0) #0 {
  %2 = alloca i64, align 8
  store i64 %0, ptr %2, align 8, !tbaa !7
  %3 = load i64, ptr %2, align 8, !tbaa !7
  %4 = inttoptr i64 %3 to ptr
  %5 = getelementptr inbounds nuw %struct.RHash, ptr %4, i32 0, i32 0
  %6 = getelementptr inbounds nuw %struct.RBasic, ptr %5, i32 0, i32 0
  %7 = load i64, ptr %6, align 8, !tbaa !121
  %8 = and i64 %7, 8192
  %9 = icmp ne i64 %8, 0
  ret i1 %9
}

; Function Attrs: inlinehint nounwind sspstrong willreturn memory(read) uwtable
define internal i32 @RB_BUILTIN_TYPE(i64 noundef %0) #7 {
  %2 = alloca i64, align 8
  %3 = alloca i64, align 8
  store i64 %0, ptr %2, align 8, !tbaa !7
  call void @llvm.lifetime.start.p0(i64 8, ptr %3) #23
  %4 = load i64, ptr %2, align 8, !tbaa !7
  %5 = inttoptr i64 %4 to ptr
  %6 = getelementptr inbounds nuw %struct.RBasic, ptr %5, i32 0, i32 0
  %7 = load i64, ptr %6, align 8, !tbaa !66
  %8 = and i64 %7, 31
  store i64 %8, ptr %3, align 8, !tbaa !7
  %9 = load i64, ptr %3, align 8, !tbaa !7
  %10 = trunc i64 %9 to i32
  call void @llvm.lifetime.end.p0(i64 8, ptr %3) #23
  ret i32 %10
}

; Function Attrs: inlinehint nounwind sspstrong willreturn memory(none) uwtable
define internal zeroext i1 @RB_SPECIAL_CONST_P(i64 noundef %0) #8 {
  %2 = alloca i64, align 8
  store i64 %0, ptr %2, align 8, !tbaa !7
  %3 = load i64, ptr %2, align 8, !tbaa !7
  %4 = icmp eq i64 %3, 0
  br i1 %4, label %8, label %5

5:                                                ; preds = %1
  %6 = load i64, ptr %2, align 8, !tbaa !7
  %7 = call zeroext i1 @RB_IMMEDIATE_P(i64 noundef %6) #26
  br label %8

8:                                                ; preds = %5, %1
  %9 = phi i1 [ true, %1 ], [ %7, %5 ]
  ret i1 %9
}

; Function Attrs: inlinehint nounwind sspstrong willreturn memory(none) uwtable
define internal zeroext i1 @RB_NIL_P(i64 noundef %0) #8 {
  %2 = alloca i64, align 8
  store i64 %0, ptr %2, align 8, !tbaa !7
  %3 = load i64, ptr %2, align 8, !tbaa !7
  %4 = icmp eq i64 %3, 4
  ret i1 %4
}

; Function Attrs: nounwind sspstrong uwtable
define internal i64 @has_ivars(i64 noundef %0, i64 noundef %1, ptr noundef %2) #0 {
  %4 = alloca i64, align 8
  %5 = alloca i64, align 8
  %6 = alloca ptr, align 8
  %7 = alloca i64, align 8
  store i64 %0, ptr %4, align 8, !tbaa !7
  store i64 %1, ptr %5, align 8, !tbaa !7
  store ptr %2, ptr %6, align 8, !tbaa !18
  call void @llvm.lifetime.start.p0(i64 8, ptr %7) #23
  %8 = load i64, ptr %5, align 8, !tbaa !7
  %9 = call zeroext i1 @RB_NIL_P(i64 noundef %8) #26
  %10 = xor i1 %9, true
  %11 = zext i1 %10 to i32
  %12 = sext i32 %11 to i64
  store i64 %12, ptr %7, align 8, !tbaa !7
  %13 = load i64, ptr %4, align 8, !tbaa !7
  %14 = call zeroext i1 @RB_SPECIAL_CONST_P(i64 noundef %13) #26
  br i1 %14, label %15, label %16

15:                                               ; preds = %3
  br label %28

16:                                               ; preds = %3
  %17 = load i64, ptr %4, align 8, !tbaa !7
  %18 = call i32 @RB_BUILTIN_TYPE(i64 noundef %17) #27
  switch i32 %18, label %27 [
    i32 1, label %19
    i32 2, label %19
    i32 3, label %19
    i32 8, label %20
  ]

19:                                               ; preds = %16, %16, %16
  br label %37

20:                                               ; preds = %16
  %21 = load i64, ptr %4, align 8, !tbaa !7
  %22 = call zeroext i1 @rb_hash_ruby2_keywords_p(i64 noundef %21)
  br i1 %22, label %23, label %26

23:                                               ; preds = %20
  %24 = load i64, ptr %7, align 8, !tbaa !7
  %25 = add i64 %24, 1
  store i64 %25, ptr %7, align 8, !tbaa !7
  br label %26

26:                                               ; preds = %23, %20
  br label %27

27:                                               ; preds = %16, %26
  br label %28

28:                                               ; preds = %27, %15
  %29 = load i64, ptr %4, align 8, !tbaa !7
  %30 = ptrtoint ptr %7 to i64
  call void @rb_ivar_foreach(i64 noundef %29, ptr noundef @obj_count_ivars, i64 noundef %30)
  %31 = load i64, ptr %7, align 8, !tbaa !7
  %32 = icmp ne i64 %31, 0
  br i1 %32, label %33, label %36

33:                                               ; preds = %28
  %34 = load i64, ptr %4, align 8, !tbaa !7
  %35 = load ptr, ptr %6, align 8, !tbaa !18
  store i64 %34, ptr %35, align 8, !tbaa !7
  br label %36

36:                                               ; preds = %33, %28
  br label %37

37:                                               ; preds = %36, %19
  %38 = load i64, ptr %7, align 8, !tbaa !7
  call void @llvm.lifetime.end.p0(i64 8, ptr %7) #23
  ret i64 %38
}