; Function Attrs: nounwind sspstrong uwtable
define internal fastcc i64 @has_ivars(i64 noundef %0, i64 noundef %1, ptr noundef nonnull writeonly captures(none) %2) unnamed_addr #0 {
  %4 = alloca i64, align 8
  call void @llvm.lifetime.start.p0(i64 8, ptr nonnull %4) #22
  %5 = icmp ne i64 %1, 4
  %6 = zext i1 %5 to i64
  store i64 %6, ptr %4, align 8, !tbaa !7
  %7 = icmp eq i64 %0, 0
  %8 = and i64 %0, 7
  %9 = icmp ne i64 %8, 0
  %10 = or i1 %7, %9
  br i1 %10, label %20, label %11

11:                                               ; preds = %3
  %12 = inttoptr i64 %0 to ptr
  %13 = load i64, ptr %12, align 8, !tbaa !56
  %14 = trunc i64 %13 to i32
  %15 = and i32 %14, 31
  switch i32 %15, label %20 [
    i32 1, label %24
    i32 2, label %24
    i32 3, label %24
    i32 8, label %16
  ]

16:                                               ; preds = %11
  %17 = and i64 %13, 8192
  %.not6 = icmp eq i64 %17, 0
  br i1 %.not6, label %20, label %18

18:                                               ; preds = %16
  %19 = select i1 %5, i64 2, i64 1
  store i64 %19, ptr %4, align 8, !tbaa !7
  br label %20

20:                                               ; preds = %11, %18, %16, %3
  %21 = ptrtoint ptr %4 to i64
  call void @rb_ivar_foreach(i64 noundef %0, ptr noundef nonnull @obj_count_ivars, i64 noundef %21) #22
  %22 = load i64, ptr %4, align 8, !tbaa !7
  %.not = icmp eq i64 %22, 0
  br i1 %.not, label %24, label %23

23:                                               ; preds = %20
  store i64 %0, ptr %2, align 8, !tbaa !7
  br label %24

24:                                               ; preds = %20, %23, %11, %11, %11
  %25 = phi i64 [ 0, %20 ], [ %22, %23 ], [ %6, %11 ], [ %6, %11 ], [ %6, %11 ]
  call void @llvm.lifetime.end.p0(i64 8, ptr nonnull %4) #22
  ret i64 %25
}